target datalayout = "e-m:e-p270:32:32-p271:32:32-p272:64:64-i64:64-i128:128-f80:128-n8:16:32:64-S128"
target triple = "x86_64-pc-linux-gnu"

%struct.curl_trc_feat = type { ptr, i32 }
%struct.Curl_easy = type { i32, i64, i64, ptr, %struct.Curl_llist_node, %struct.Curl_llist_node, i32, i32, %struct.Curl_message, %struct.easy_pollset, %struct.Names, ptr, ptr, ptr, ptr, %struct.SingleRequest, %struct.UserDefined, ptr, ptr, ptr, %struct.Progress, %struct.UrlState, ptr, %struct.PureInfo, %struct.curl_tlssessioninfo }
%struct.Curl_llist_node = type { ptr, ptr, ptr, ptr }
%struct.Curl_message = type { %struct.Curl_llist_node, %struct.CURLMsg }
%struct.CURLMsg = type { i32, ptr, %union.anon }
%union.anon = type { ptr }
%struct.easy_pollset = type { [5 x i32], i32, [5 x i8] }
%struct.Names = type { ptr, i32 }
%struct.SingleRequest = type <{ i64, i64, i64, i64, %struct.curltime, i32, i32, i32, i32, i64, i32, i32, i8, i8, [2 x i8], i32, ptr, ptr, %struct.bufq, i64, i64, ptr, ptr, %union.anon.0, ptr, i8, i32, [3 x i8] }>
%struct.curltime = type { i64, i32 }
%struct.bufq = type { ptr, ptr, ptr, ptr, i64, i64, i64, i32 }
%union.anon.0 = type { ptr }
%struct.UserDefined = type <{ ptr, ptr, ptr, ptr, ptr, ptr, i64, i64, i64, ptr, ptr, i64, ptr, ptr, ptr, ptr, ptr, ptr, ptr, ptr, ptr, ptr, ptr, ptr, ptr, ptr, ptr, ptr, ptr, ptr, ptr, ptr, ptr, ptr, ptr, i64, i64, i64, i64, i64, i64, i64, i64, i64, ptr, ptr, %struct.curl_mimepart, ptr, ptr, ptr, i64, %struct.ssl_config_data, %struct.ssl_config_data, ptr, i16, i8, i8, %struct.ssl_general_config, i32, i32, i32, [4 x i8], ptr, ptr, i64, i32, i8, i8, i8, i8, ptr, ptr, ptr, i32, [4 x i8], [74 x ptr], [8 x ptr], i32, i32, i32, [4 x i8], ptr, i32, [4 x i8], ptr, ptr, ptr, ptr, ptr, i32, i32, i32, i32, i32, i32, i32, i32, i64, ptr, ptr, i64, ptr, i64, ptr, ptr, ptr, ptr, i32, i16, i16, i16, i8, i8, i8, i8, i8, i8, i8, i8, i64, [6 x i8] }>
%struct.curl_mimepart = type { ptr, ptr, i32, i32, ptr, ptr, ptr, ptr, ptr, ptr, ptr, ptr, ptr, ptr, ptr, i64, %struct.mime_state, ptr, %struct.mime_encoder_state, i64 }
%struct.mime_state = type { i32, ptr, i64 }
%struct.mime_encoder_state = type { i64, i64, i64, [256 x i8] }
%struct.ssl_config_data = type { %struct.ssl_primary_config, i64, ptr, ptr, ptr, ptr, ptr, ptr, ptr, i16 }
%struct.ssl_primary_config = type { ptr, ptr, ptr, ptr, ptr, ptr, ptr, ptr, ptr, ptr, ptr, ptr, ptr, ptr, i8, i32, i8, i8 }
%struct.ssl_general_config = type { i32 }
%struct.Progress = type { i64, %struct.pgrs_dir, %struct.pgrs_dir, i64, i64, i32, i32, i64, i64, i64, i64, i64, i64, i64, i64, i64, %struct.curltime, %struct.curltime, %struct.curltime, %struct.curltime, %struct.curltime, [6 x i64], [6 x %struct.curltime], i32, i8 }
%struct.pgrs_dir = type { i64, i64, i64, %struct.pgrs_measure }
%struct.pgrs_measure = type { %struct.curltime, i64 }
%struct.UrlState = type { %struct.curltime, i64, i64, %struct.dynbuf, ptr, i64, ptr, i32, i32, i32, ptr, i32, i64, i32, ptr, %struct.digestdata, %struct.digestdata, %struct.auth, %struct.auth, %struct.Curl_async, ptr, i8, %struct.curltime, %struct.Curl_tree, %struct.Curl_llist, [15 x %struct.time_node], ptr, ptr, i64, i64, i64, i64, [32 x i8], i64, ptr, ptr, ptr, %struct.urlpieces, ptr, ptr, ptr, ptr, ptr, i64, %struct.dynbuf, %struct.Curl_llist, [2 x %struct.curl_header], ptr, i32, ptr, ptr, %struct.store_netrc, %struct.dynamically_allocated_data, i8, i8, i8, i8, i32 }
%struct.digestdata = type { ptr, ptr, ptr, ptr, ptr, ptr, i32, i8, i8 }
%struct.auth = type { i64, i64, i64, i8 }
%struct.Curl_async = type { ptr, ptr, ptr, ptr, i32, i32, i8 }
%struct.Curl_tree = type { ptr, ptr, ptr, ptr, %struct.curltime, ptr }
%struct.time_node = type { %struct.Curl_llist_node, %struct.curltime, i32 }
%struct.urlpieces = type { ptr, ptr, ptr, ptr, ptr, ptr, ptr, ptr }
%struct.dynbuf = type { ptr, i64, i64, i64 }
%struct.Curl_llist = type { ptr, ptr, ptr, i64 }
%struct.curl_header = type { ptr, ptr, i64, i64, i32, ptr }
%struct.store_netrc = type { %struct.dynbuf, ptr, i8 }
%struct.dynamically_allocated_data = type { ptr, ptr, ptr, ptr, ptr, ptr, ptr, ptr, ptr, ptr, ptr, ptr, ptr, ptr }
%struct.PureInfo = type { i32, i32, i32, i64, i64, i64, i64, i64, i64, i64, ptr, ptr, i64, i32, %struct.ip_quadruple, i32, ptr, i32, %struct.curl_certinfo, i32, i8 }
%struct.ip_quadruple = type { [46 x i8], [46 x i8], i32, i32 }
%struct.curl_certinfo = type { i32, ptr }
%struct.curl_tlssessioninfo = type { i32, ptr }
%struct.websocket = type { ptr, %struct.ws_decoder, %struct.ws_encoder, %struct.bufq, %struct.bufq, %struct.curl_ws_frame, i64 }
%struct.ws_decoder = type { i32, i32, i64, i64, [10 x i8], i32, i32, i32 }
%struct.ws_encoder = type { i64, i64, i32, [4 x i8], i8, i8 }
%struct.curl_ws_frame = type { i32, i32, i64, i64, i64 }
%struct.ws_cw_dec_ctx = type { ptr, ptr, ptr, i32 }

@.str.34 = private unnamed_addr constant [37 x i8] c"WS: auto-respond to PING with a PONG\00", align 1

; Function Attrs: nounwind uwtable
define internal void @update_meta(ptr noundef %0, i32 noundef %1, i32 noundef %2, i64 noundef %3, i64 noundef %4, i64 noundef %5) #0 {
  %7 = alloca ptr, align 8
  %8 = alloca i32, align 4
  %9 = alloca i32, align 4
  %10 = alloca i64, align 8
  %11 = alloca i64, align 8
  %12 = alloca i64, align 8
  store ptr %0, ptr %7, align 8, !tbaa !92
  store i32 %1, ptr %8, align 4, !tbaa !10
  store i32 %2, ptr %9, align 4, !tbaa !10
  store i64 %3, ptr %10, align 8, !tbaa !17
  store i64 %4, ptr %11, align 8, !tbaa !17
  store i64 %5, ptr %12, align 8, !tbaa !17
  %13 = load i32, ptr %8, align 4, !tbaa !10
  %14 = load ptr, ptr %7, align 8, !tbaa !92
  %15 = getelementptr inbounds nuw %struct.websocket, ptr %14, i32 0, i32 5
  %16 = getelementptr inbounds nuw %struct.curl_ws_frame, ptr %15, i32 0, i32 0
  store i32 %13, ptr %16, align 8, !tbaa !142
  %17 = load i32, ptr %9, align 4, !tbaa !10
  %18 = load ptr, ptr %7, align 8, !tbaa !92
  %19 = getelementptr inbounds nuw %struct.websocket, ptr %18, i32 0, i32 5
  %20 = getelementptr inbounds nuw %struct.curl_ws_frame, ptr %19, i32 0, i32 1
  store i32 %17, ptr %20, align 4, !tbaa !143
  %21 = load i64, ptr %10, align 8, !tbaa !17
  %22 = load ptr, ptr %7, align 8, !tbaa !92
  %23 = getelementptr inbounds nuw %struct.websocket, ptr %22, i32 0, i32 5
  %24 = getelementptr inbounds nuw %struct.curl_ws_frame, ptr %23, i32 0, i32 2
  store i64 %21, ptr %24, align 8, !tbaa !136
  %25 = load i64, ptr %12, align 8, !tbaa !17
  %26 = load ptr, ptr %7, align 8, !tbaa !92
  %27 = getelementptr inbounds nuw %struct.websocket, ptr %26, i32 0, i32 5
  %28 = getelementptr inbounds nuw %struct.curl_ws_frame, ptr %27, i32 0, i32 4
  store i64 %25, ptr %28, align 8, !tbaa !133
  %29 = load i64, ptr %11, align 8, !tbaa !17
  %30 = load i64, ptr %10, align 8, !tbaa !17
  %31 = sub nsw i64 %29, %30
  %32 = load i64, ptr %12, align 8, !tbaa !17
  %33 = sub i64 %31, %32
  %34 = load ptr, ptr %7, align 8, !tbaa !92
  %35 = getelementptr inbounds nuw %struct.websocket, ptr %34, i32 0, i32 5
  %36 = getelementptr inbounds nuw %struct.curl_ws_frame, ptr %35, i32 0, i32 3
  store i64 %33, ptr %36, align 8, !tbaa !137
  ret void
}

; Function Attrs: nounwind uwtable
define internal i64 @ws_cw_dec_next(ptr noundef %0, i64 noundef %1, i32 noundef %2, i32 noundef %3, i64 noundef %4, i64 noundef %5, ptr noundef %6, ptr noundef %7) #0 {
  %9 = alloca i64, align 8
  %10 = alloca ptr, align 8
  %11 = alloca i64, align 8
  %12 = alloca i32, align 4
  %13 = alloca i32, align 4
  %14 = alloca i64, align 8
  %15 = alloca i64, align 8
  %16 = alloca ptr, align 8
  %17 = alloca ptr, align 8
  %18 = alloca ptr, align 8
  %19 = alloca ptr, align 8
  %20 = alloca ptr, align 8
  %21 = alloca i64, align 8
  %22 = alloca i64, align 8
  %23 = alloca i32, align 4
  store ptr %0, ptr %10, align 8, !tbaa !20
  store i64 %1, ptr %11, align 8, !tbaa !17
  store i32 %2, ptr %12, align 4, !tbaa !10
  store i32 %3, ptr %13, align 4, !tbaa !10
  store i64 %4, ptr %14, align 8, !tbaa !17
  store i64 %5, ptr %15, align 8, !tbaa !17
  store ptr %6, ptr %16, align 8, !tbaa !19
  store ptr %7, ptr %17, align 8, !tbaa !19
  call void @llvm.lifetime.start.p0(i64 8, ptr %18) #6
  %24 = load ptr, ptr %16, align 8, !tbaa !19
  store ptr %24, ptr %18, align 8, !tbaa !166
  call void @llvm.lifetime.start.p0(i64 8, ptr %19) #6
  %25 = load ptr, ptr %18, align 8, !tbaa !166
  %26 = getelementptr inbounds nuw %struct.ws_cw_dec_ctx, ptr %25, i32 0, i32 0
  %27 = load ptr, ptr %26, align 8, !tbaa !160
  store ptr %27, ptr %19, align 8, !tbaa !3
  call void @llvm.lifetime.start.p0(i64 8, ptr %20) #6
  %28 = load ptr, ptr %18, align 8, !tbaa !166
  %29 = getelementptr inbounds nuw %struct.ws_cw_dec_ctx, ptr %28, i32 0, i32 1
  %30 = load ptr, ptr %29, align 8, !tbaa !162
  store ptr %30, ptr %20, align 8, !tbaa !92
  call void @llvm.lifetime.start.p0(i64 8, ptr %21) #6
  %31 = load i64, ptr %15, align 8, !tbaa !17
  %32 = load i64, ptr %14, align 8, !tbaa !17
  %33 = load i64, ptr %11, align 8, !tbaa !17
  %34 = add i64 %32, %33
  %35 = sub i64 %31, %34
  store i64 %35, ptr %21, align 8, !tbaa !17
  %36 = load i32, ptr %13, align 4, !tbaa !10
  %37 = and i32 %36, 16
  %38 = icmp ne i32 %37, 0
  br i1 %38, label %39, label %87

39:                                               ; preds = %8
  %40 = load i64, ptr %21, align 8, !tbaa !17
  %41 = icmp ne i64 %40, 0
  br i1 %41, label %87, label %42

42:                                               ; preds = %39
  call void @llvm.lifetime.start.p0(i64 8, ptr %22) #6
  br label %43

43:                                               ; preds = %42
  %44 = load ptr, ptr %19, align 8, !tbaa !3
  %45 = icmp ne ptr %44, null
  br i1 %45, label %46, label %71

46:                                               ; preds = %43
  %47 = load ptr, ptr %19, align 8, !tbaa !3
  %48 = getelementptr inbounds nuw %struct.Curl_easy, ptr %47, i32 0, i32 16
  %49 = getelementptr inbounds nuw %struct.UserDefined, ptr %48, i32 0, i32 119
  %50 = load i64, ptr %49, align 2
  %51 = lshr i64 %50, 31
  %52 = and i64 %51, 1
  %53 = trunc i64 %52 to i32
  %54 = icmp ne i32 %53, 0
  br i1 %54, label %55, label %71

55:                                               ; preds = %46
  %56 = load ptr, ptr %19, align 8, !tbaa !3
  %57 = getelementptr inbounds nuw %struct.Curl_easy, ptr %56, i32 0, i32 21
  %58 = getelementptr inbounds nuw %struct.UrlState, ptr %57, i32 0, i32 50
  %59 = load ptr, ptr %58, align 8, !tbaa !94
  %60 = icmp ne ptr %59, null
  br i1 %60, label %61, label %69

61:                                               ; preds = %55
  %62 = load ptr, ptr %19, align 8, !tbaa !3
  %63 = getelementptr inbounds nuw %struct.Curl_easy, ptr %62, i32 0, i32 21
  %64 = getelementptr inbounds nuw %struct.UrlState, ptr %63, i32 0, i32 50
  %65 = load ptr, ptr %64, align 8, !tbaa !94
  %66 = getelementptr inbounds nuw %struct.curl_trc_feat, ptr %65, i32 0, i32 1
  %67 = load i32, ptr %66, align 8, !tbaa !95
  %68 = icmp sge i32 %67, 1
  br i1 %68, label %69, label %71

69:                                               ; preds = %61, %55
  %70 = load ptr, ptr %19, align 8, !tbaa !3
  call void (ptr, ptr, ...) @Curl_infof(ptr noundef %70, ptr noundef @.str.34)
  br label %71

71:                                               ; preds = %69, %61, %46, %43
  br label %72

72:                                               ; preds = %71
  br label %73

73:                                               ; preds = %72
  %74 = load ptr, ptr %19, align 8, !tbaa !3
  %75 = load ptr, ptr %10, align 8, !tbaa !20
  %76 = load i64, ptr %11, align 8, !tbaa !17
  %77 = call i32 @curl_ws_send(ptr noundef %74, ptr noundef %75, i64 noundef %76, ptr noundef %22, i64 noundef 0, i32 noundef 64)
  %78 = load ptr, ptr %17, align 8, !tbaa !19
  store i32 %77, ptr %78, align 4, !tbaa !10
  %79 = load ptr, ptr %17, align 8, !tbaa !19
  %80 = load i32, ptr %79, align 4, !tbaa !10
  %81 = icmp ne i32 %80, 0
  br i1 %81, label %82, label %83

82:                                               ; preds = %73
  store i64 -1, ptr %9, align 8
  store i32 1, ptr %23, align 4
  br label %84

83:                                               ; preds = %73
  store i32 0, ptr %23, align 4
  br label %84

84:                                               ; preds = %83, %82
  call void @llvm.lifetime.end.p0(i64 8, ptr %22) #6
  %85 = load i32, ptr %23, align 4
  switch i32 %85, label %120 [
    i32 0, label %86
  ]

86:                                               ; preds = %84
  br label %117

87:                                               ; preds = %39, %8
  %88 = load i64, ptr %11, align 8, !tbaa !17
  %89 = icmp ne i64 %88, 0
  br i1 %89, label %93, label %90

90:                                               ; preds = %87
  %91 = load i64, ptr %21, align 8, !tbaa !17
  %92 = icmp ne i64 %91, 0
  br i1 %92, label %116, label %93

93:                                               ; preds = %90, %87
  %94 = load ptr, ptr %20, align 8, !tbaa !92
  %95 = load i32, ptr %12, align 4, !tbaa !10
  %96 = load i32, ptr %13, align 4, !tbaa !10
  %97 = load i64, ptr %14, align 8, !tbaa !17
  %98 = load i64, ptr %15, align 8, !tbaa !17
  %99 = load i64, ptr %11, align 8, !tbaa !17
  call void @update_meta(ptr noundef %94, i32 noundef %95, i32 noundef %96, i64 noundef %97, i64 noundef %98, i64 noundef %99)
  %100 = load ptr, ptr %19, align 8, !tbaa !3
  %101 = load ptr, ptr %18, align 8, !tbaa !166
  %102 = getelementptr inbounds nuw %struct.ws_cw_dec_ctx, ptr %101, i32 0, i32 2
  %103 = load ptr, ptr %102, align 8, !tbaa !163
  %104 = load ptr, ptr %18, align 8, !tbaa !166
  %105 = getelementptr inbounds nuw %struct.ws_cw_dec_ctx, ptr %104, i32 0, i32 3
  %106 = load i32, ptr %105, align 8, !tbaa !164
  %107 = load ptr, ptr %10, align 8, !tbaa !20
  %108 = load i64, ptr %11, align 8, !tbaa !17
  %109 = call i32 @Curl_cwriter_write(ptr noundef %100, ptr noundef %103, i32 noundef %106, ptr noundef %107, i64 noundef %108)
  %110 = load ptr, ptr %17, align 8, !tbaa !19
  store i32 %109, ptr %110, align 4, !tbaa !10
  %111 = load ptr, ptr %17, align 8, !tbaa !19
  %112 = load i32, ptr %111, align 4, !tbaa !10
  %113 = icmp ne i32 %112, 0
  br i1 %113, label %114, label %115

114:                                              ; preds = %93
  store i64 -1, ptr %9, align 8
  store i32 1, ptr %23, align 4
  br label %120

115:                                              ; preds = %93
  br label %116

116:                                              ; preds = %115, %90
  br label %117

117:                                              ; preds = %116, %86
  %118 = load ptr, ptr %17, align 8, !tbaa !19
  store i32 0, ptr %118, align 4, !tbaa !10
  %119 = load i64, ptr %11, align 8, !tbaa !17
  store i64 %119, ptr %9, align 8
  store i32 1, ptr %23, align 4
  br label %120

120:                                              ; preds = %117, %114, %84
  call void @llvm.lifetime.end.p0(i64 8, ptr %21) #6
  call void @llvm.lifetime.end.p0(i64 8, ptr %20) #6
  call void @llvm.lifetime.end.p0(i64 8, ptr %19) #6
  call void @llvm.lifetime.end.p0(i64 8, ptr %18) #6
  %121 = load i64, ptr %9, align 8
  ret i64 %121
}