; Function Attrs: nounwind uwtable
define internal noundef i64 @ws_cw_dec_next(ptr noundef %0, i64 noundef %1, i32 noundef %2, i32 noundef %3, i64 noundef %4, i64 noundef %5, ptr noundef readonly captures(none) %6, ptr noundef writeonly captures(none) initializes((0, 4)) %7) #0 {
  %9 = alloca i64, align 8
  %10 = load ptr, ptr %6, align 8, !tbaa !148
  %11 = getelementptr inbounds nuw i8, ptr %6, i64 8
  %12 = load ptr, ptr %11, align 8, !tbaa !151
  %13 = add i64 %4, %1
  %14 = and i32 %3, 16
  %15 = icmp eq i32 %14, 0
  %16 = icmp ne i64 %5, %13
  %or.cond = or i1 %15, %16
  br i1 %or.cond, label %32, label %17

17:                                               ; preds = %8
  call void @llvm.lifetime.start.p0(i64 8, ptr nonnull %9) #7
  %.not = icmp eq ptr %10, null
  br i1 %.not, label %30, label %18

18:                                               ; preds = %17
  %19 = getelementptr inbounds nuw i8, ptr %10, i64 2658
  %20 = load i64, ptr %19, align 2
  %21 = and i64 %20, 2147483648
  %.not42 = icmp eq i64 %21, 0
  br i1 %.not42, label %30, label %22

22:                                               ; preds = %18
  %23 = getelementptr inbounds nuw i8, ptr %10, i64 4864
  %24 = load ptr, ptr %23, align 8, !tbaa !85
  %.not43 = icmp eq ptr %24, null
  br i1 %.not43, label %29, label %25

25:                                               ; preds = %22
  %26 = getelementptr inbounds nuw i8, ptr %24, i64 8
  %27 = load i32, ptr %26, align 8, !tbaa !86
  %28 = icmp sgt i32 %27, 0
  br i1 %28, label %29, label %30

29:                                               ; preds = %25, %22
  tail call void (ptr, ptr, ...) @Curl_infof(ptr noundef nonnull %10, ptr noundef nonnull @.str.34) #7
  br label %30

30:                                               ; preds = %29, %25, %18, %17
  %31 = call i32 @curl_ws_send(ptr noundef %10, ptr noundef %0, i64 noundef %1, ptr noundef nonnull %9, i64 noundef 0, i32 noundef 64)
  store i32 %31, ptr %7, align 4, !tbaa !96
  %.not44 = icmp eq i32 %31, 0
  call void @llvm.lifetime.end.p0(i64 8, ptr nonnull %9) #7
  br i1 %.not44, label %46, label %47

32:                                               ; preds = %8
  %33 = icmp eq i64 %1, 0
  %or.cond3 = and i1 %33, %16
  br i1 %or.cond3, label %46, label %34

34:                                               ; preds = %32
  %35 = getelementptr inbounds nuw i8, ptr %12, i64 216
  store i32 %2, ptr %35, align 8, !tbaa !114
  %36 = getelementptr inbounds nuw i8, ptr %12, i64 220
  store i32 %3, ptr %36, align 4, !tbaa !117
  %37 = getelementptr inbounds nuw i8, ptr %12, i64 224
  store i64 %4, ptr %37, align 8, !tbaa !118
  %38 = getelementptr inbounds nuw i8, ptr %12, i64 240
  store i64 %1, ptr %38, align 8, !tbaa !119
  %39 = sub i64 %5, %13
  %40 = getelementptr inbounds nuw i8, ptr %12, i64 232
  store i64 %39, ptr %40, align 8, !tbaa !120
  %41 = getelementptr inbounds nuw i8, ptr %6, i64 16
  %42 = load ptr, ptr %41, align 8, !tbaa !152
  %43 = getelementptr inbounds nuw i8, ptr %6, i64 24
  %44 = load i32, ptr %43, align 8, !tbaa !153
  %45 = tail call i32 @Curl_cwriter_write(ptr noundef %10, ptr noundef %42, i32 noundef %44, ptr noundef %0, i64 noundef %1) #7
  store i32 %45, ptr %7, align 4, !tbaa !96
  %.not45 = icmp eq i32 %45, 0
  br i1 %.not45, label %46, label %47

46:                                               ; preds = %32, %34, %30
  store i32 0, ptr %7, align 4, !tbaa !96
  br label %47

47:                                               ; preds = %34, %30, %46
  %.1 = phi i64 [ %1, %46 ], [ -1, %30 ], [ -1, %34 ]
  ret i64 %.1
}